target datalayout = "e-m:e-p270:32:32-p271:32:32-p272:64:64-i64:64-i128:128-f80:128-n8:16:32:64-S128"
target triple = "x86_64-unknown-linux-gnu"

%struct.BlockCopyState = type { ptr, ptr, i64, i64, i64, i32, %struct.CoMutex, i64, i32, %struct.BlockReqList, %struct.anon.0, i8, ptr, ptr, ptr, %struct.RateLimit }
%struct.CoMutex = type { i32, ptr, %struct.anon, %struct.anon, i32, i32, ptr }
%struct.anon = type { ptr }
%struct.BlockReqList = type { ptr }
%struct.anon.0 = type { ptr }
%struct.RateLimit = type { %struct.QemuMutex, i64, i64, i64, i64, i64 }
%struct.QemuMutex = type { %union.pthread_mutex_t, i8 }
%union.pthread_mutex_t = type { %struct.__pthread_mutex_s }
%struct.__pthread_mutex_s = type { i32, i32, i32, i32, i32, i16, i16, %struct.__pthread_internal_list }
%struct.__pthread_internal_list = type { ptr, ptr }
%struct.QemuLockable = type { ptr, ptr, ptr }

; Function Attrs: nounwind sspstrong uwtable
define internal void @qemu_lockable_unlock(ptr noundef %x) #0 {
entry:
  %x.addr = alloca ptr, align 8
  store ptr %x, ptr %x.addr, align 8
  %0 = load ptr, ptr %x.addr, align 8
  %unlock = getelementptr inbounds %struct.QemuLockable, ptr %0, i32 0, i32 2
  %1 = load ptr, ptr %unlock, align 8
  %2 = load ptr, ptr %x.addr, align 8
  %object = getelementptr inbounds %struct.QemuLockable, ptr %2, i32 0, i32 0
  %3 = load ptr, ptr %object, align 8
  call void %1(ptr noundef %3)
  ret void
}

; Function Attrs: nounwind sspstrong uwtable
define internal void @qemu_lockable_auto_unlock(ptr noundef %x) #0 {
entry:
  %x.addr = alloca ptr, align 8
  store ptr %x, ptr %x.addr, align 8
  %0 = load ptr, ptr %x.addr, align 8
  %tobool = icmp ne ptr %0, null
  br i1 %tobool, label %if.then, label %if.end

if.then:                                          ; preds = %entry
  %1 = load ptr, ptr %x.addr, align 8
  call void @qemu_lockable_unlock(ptr noundef %1)
  br label %if.end

if.end:                                           ; preds = %if.then, %entry
  ret void
}

; Function Attrs: nounwind sspstrong uwtable
define internal void @glib_autoptr_clear_QemuLockable(ptr noundef %_ptr) #0 {
entry:
  %_ptr.addr = alloca ptr, align 8
  store ptr %_ptr, ptr %_ptr.addr, align 8
  %0 = load ptr, ptr %_ptr.addr, align 8
  %tobool = icmp ne ptr %0, null
  br i1 %tobool, label %if.then, label %if.end

if.then:                                          ; preds = %entry
  %1 = load ptr, ptr %_ptr.addr, align 8
  call void @qemu_lockable_auto_unlock(ptr noundef %1)
  br label %if.end

if.end:                                           ; preds = %if.then, %entry
  ret void
}

; Function Attrs: nounwind sspstrong uwtable
define internal void @qemu_lockable_lock(ptr noundef %x) #0 {
entry:
  %x.addr = alloca ptr, align 8
  store ptr %x, ptr %x.addr, align 8
  %0 = load ptr, ptr %x.addr, align 8
  %lock = getelementptr inbounds %struct.QemuLockable, ptr %0, i32 0, i32 1
  %1 = load ptr, ptr %lock, align 8
  %2 = load ptr, ptr %x.addr, align 8
  %object = getelementptr inbounds %struct.QemuLockable, ptr %2, i32 0, i32 0
  %3 = load ptr, ptr %object, align 8
  call void %1(ptr noundef %3)
  ret void
}

; Function Attrs: nounwind sspstrong uwtable
define internal void @glib_autoptr_cleanup_QemuLockable(ptr noundef %_ptr) #0 {
entry:
  %_ptr.addr = alloca ptr, align 8
  store ptr %_ptr, ptr %_ptr.addr, align 8
  %0 = load ptr, ptr %_ptr.addr, align 8
  %1 = load ptr, ptr %0, align 8
  call void @glib_autoptr_clear_QemuLockable(ptr noundef %1)
  ret void
}

; Function Attrs: nounwind sspstrong uwtable
define internal ptr @qemu_lockable_auto_lock(ptr noundef %x) #0 {
entry:
  %x.addr = alloca ptr, align 8
  store ptr %x, ptr %x.addr, align 8
  %0 = load ptr, ptr %x.addr, align 8
  call void @qemu_lockable_lock(ptr noundef %0)
  %1 = load ptr, ptr %x.addr, align 8
  ret ptr %1
}

; Function Attrs: nounwind sspstrong uwtable
define internal void @ratelimit_set_speed(ptr noundef %limit, i64 noundef %speed, i64 noundef %slice_ns) #0 {
entry:
  %x.addr.i = alloca ptr, align 8
  %lockable.addr.i = alloca ptr, align 8
  %limit.addr = alloca ptr, align 8
  %speed.addr = alloca i64, align 8
  %slice_ns.addr = alloca i64, align 8
  %qemu_lockable_auto1 = alloca ptr, align 8
  %.compoundliteral = alloca %struct.QemuLockable, align 8
  %_a2 = alloca double, align 8
  %_b3 = alloca double, align 8
  %tmp = alloca double, align 8
  store ptr %limit, ptr %limit.addr, align 8
  store i64 %speed, ptr %speed.addr, align 8
  store i64 %slice_ns, ptr %slice_ns.addr, align 8
  %0 = load ptr, ptr %limit.addr, align 8
  %lock = getelementptr inbounds %struct.RateLimit, ptr %0, i32 0, i32 0
  %object = getelementptr inbounds %struct.QemuLockable, ptr %.compoundliteral, i32 0, i32 0
  %1 = load ptr, ptr %limit.addr, align 8
  %lock1 = getelementptr inbounds %struct.RateLimit, ptr %1, i32 0, i32 0
  store ptr %lock1, ptr %object, align 8
  %lock2 = getelementptr inbounds %struct.QemuLockable, ptr %.compoundliteral, i32 0, i32 1
  store ptr @qemu_mutex_lock, ptr %lock2, align 8
  %unlock = getelementptr inbounds %struct.QemuLockable, ptr %.compoundliteral, i32 0, i32 2
  store ptr @qemu_mutex_unlock, ptr %unlock, align 8
  store ptr %lock, ptr %x.addr.i, align 8
  store ptr %.compoundliteral, ptr %lockable.addr.i, align 8
  %2 = load ptr, ptr %x.addr.i, align 8
  %tobool.i = icmp ne ptr %2, null
  br i1 %tobool.i, label %cond.true.i, label %cond.false.i

cond.true.i:                                      ; preds = %entry
  %3 = load ptr, ptr %lockable.addr.i, align 8
  br label %qemu_make_lockable.exit

cond.false.i:                                     ; preds = %entry
  br label %qemu_make_lockable.exit

qemu_make_lockable.exit:                          ; preds = %cond.false.i, %cond.true.i
  %cond.i = phi ptr [ %3, %cond.true.i ], [ null, %cond.false.i ]
  %call3 = call ptr @qemu_lockable_auto_lock(ptr noundef %cond.i)
  store ptr %call3, ptr %qemu_lockable_auto1, align 8
  %4 = load i64, ptr %slice_ns.addr, align 8
  %5 = load ptr, ptr %limit.addr, align 8
  %slice_ns4 = getelementptr inbounds %struct.RateLimit, ptr %5, i32 0, i32 4
  store i64 %4, ptr %slice_ns4, align 8
  %6 = load i64, ptr %speed.addr, align 8
  %cmp = icmp eq i64 %6, 0
  br i1 %cmp, label %if.then, label %if.else

if.then:                                          ; preds = %qemu_make_lockable.exit
  %7 = load ptr, ptr %limit.addr, align 8
  %slice_quota = getelementptr inbounds %struct.RateLimit, ptr %7, i32 0, i32 3
  store i64 0, ptr %slice_quota, align 8
  br label %if.end

if.else:                                          ; preds = %qemu_make_lockable.exit
  %8 = load i64, ptr %speed.addr, align 8
  %conv = uitofp i64 %8 to double
  %9 = load i64, ptr %slice_ns.addr, align 8
  %conv5 = uitofp i64 %9 to double
  %mul = fmul double %conv, %conv5
  %div = fdiv double %mul, 1.000000e+09
  store double %div, ptr %_a2, align 8
  store double 1.000000e+00, ptr %_b3, align 8
  %10 = load double, ptr %_a2, align 8
  %11 = load double, ptr %_b3, align 8
  %cmp6 = fcmp ogt double %10, %11
  br i1 %cmp6, label %cond.true, label %cond.false

cond.true:                                        ; preds = %if.else
  %12 = load double, ptr %_a2, align 8
  br label %cond.end

cond.false:                                       ; preds = %if.else
  %13 = load double, ptr %_b3, align 8
  br label %cond.end

cond.end:                                         ; preds = %cond.false, %cond.true
  %cond = phi double [ %12, %cond.true ], [ %13, %cond.false ]
  store double %cond, ptr %tmp, align 8
  %14 = load double, ptr %tmp, align 8
  %conv8 = fptoui double %14 to i64
  %15 = load ptr, ptr %limit.addr, align 8
  %slice_quota9 = getelementptr inbounds %struct.RateLimit, ptr %15, i32 0, i32 3
  store i64 %conv8, ptr %slice_quota9, align 8
  br label %if.end

if.end:                                           ; preds = %cond.end, %if.then
  call void @glib_autoptr_cleanup_QemuLockable(ptr noundef %qemu_lockable_auto1)
  ret void
}

; Function Attrs: nounwind sspstrong uwtable
define dso_local void @block_copy_set_speed(ptr noundef %s, i64 noundef %speed) #0 {
entry:
  %s.addr = alloca ptr, align 8
  %speed.addr = alloca i64, align 8
  store ptr %s, ptr %s.addr, align 8
  store i64 %speed, ptr %speed.addr, align 8
  %0 = load ptr, ptr %s.addr, align 8
  %rate_limit = getelementptr inbounds %struct.BlockCopyState, ptr %0, i32 0, i32 15
  %1 = load i64, ptr %speed.addr, align 8
  call void @ratelimit_set_speed(ptr noundef %rate_limit, i64 noundef %1, i64 noundef 100000000)
  ret void
}