; Function Attrs: nounwind sspstrong uwtable
define dso_local void @block_copy_set_speed(ptr noundef %s, i64 noundef %speed) local_unnamed_addr #0 {
entry:
  %rate_limit = getelementptr inbounds nuw i8, ptr %s, i64 160
  %0 = load atomic i64, ptr @qemu_mutex_lock_func monotonic, align 8
  %1 = inttoptr i64 %0 to ptr
  tail call void %1(ptr noundef nonnull %rate_limit, ptr noundef nonnull @.str.32, i32 noundef 122) #14
  %slice_ns4.i = getelementptr inbounds nuw i8, ptr %s, i64 232
  store i64 100000000, ptr %slice_ns4.i, align 8
  %cmp.i = icmp eq i64 %speed, 0
  br i1 %cmp.i, label %ratelimit_set_speed.exit, label %if.else.i

if.else.i:                                        ; preds = %entry
  %conv.i = uitofp i64 %speed to double
  %mul.i = fmul double %conv.i, 1.000000e+08
  %div.i = fdiv double %mul.i, 1.000000e+09
  %cmp6.i = fcmp ogt double %div.i, 1.000000e+00
  %cond.i = select i1 %cmp6.i, double %div.i, double 1.000000e+00
  %conv8.i = fptoui double %cond.i to i64
  br label %ratelimit_set_speed.exit

ratelimit_set_speed.exit:                         ; preds = %entry, %if.else.i
  %conv8.sink.i = phi i64 [ %conv8.i, %if.else.i ], [ 0, %entry ]
  %2 = getelementptr inbounds nuw i8, ptr %s, i64 224
  store i64 %conv8.sink.i, ptr %2, align 8
  tail call void @qemu_mutex_unlock_impl(ptr noundef nonnull %rate_limit, ptr noundef nonnull @.str.32, i32 noundef 132) #14
  ret void
}